target datalayout = "e-m:e-p270:32:32-p271:32:32-p272:64:64-i64:64-i128:128-f80:128-n8:16:32:64-S128"
target triple = "x86_64-pc-linux-gnu"

%struct.AVFilterContext = type { ptr, ptr, ptr, ptr, ptr, i32, ptr, ptr, i32, ptr, ptr, i32, i32, ptr, ptr, ptr, ptr, i32, ptr, i32, i32 }
%struct.TestSourceContext = type { ptr, i32, i32, i32, i32, i32, %struct.AVRational, %struct.AVRational, i64, i64, %struct.AVRational, i32, i32, ptr, ptr, i32, i32, [4 x i8], i32, %struct.FFDrawContext, %struct.FFDrawColor, [4 x i8], [4 x i8], i32, i32, i32, i32, i32, i32, i32, i32, i32, i32, i32, i32, i32, i32, i32, i32, i32, i32, i32, ptr, ptr }
%struct.AVRational = type { i32, i32 }
%struct.FFDrawContext = type { ptr, i32, i32, [4 x i32], [4 x i8], [4 x i8], i8, i8, i32, i32, i32, [3 x [3 x double]] }
%struct.FFDrawColor = type { [4 x i8], [4 x %union.anon.2] }
%union.anon.2 = type { [4 x i32] }

; Function Attrs: cold nounwind optsize uwtable
define internal i32 @color_init(ptr noundef %0) #0 {
  %2 = alloca ptr, align 8
  %3 = alloca ptr, align 8
  store ptr %0, ptr %2, align 8, !tbaa !4
  call void @llvm.lifetime.start.p0(i64 8, ptr %3) #15
  %4 = load ptr, ptr %2, align 8, !tbaa !4
  %5 = getelementptr inbounds nuw %struct.AVFilterContext, ptr %4, i32 0, i32 9
  %6 = load ptr, ptr %5, align 8, !tbaa !9
  store ptr %6, ptr %3, align 8, !tbaa !22
  %7 = load ptr, ptr %3, align 8, !tbaa !22
  %8 = getelementptr inbounds nuw %struct.TestSourceContext, ptr %7, i32 0, i32 14
  store ptr @color_fill_picture, ptr %8, align 8, !tbaa !24
  %9 = load ptr, ptr %3, align 8, !tbaa !22
  %10 = getelementptr inbounds nuw %struct.TestSourceContext, ptr %9, i32 0, i32 11
  store i32 1, ptr %10, align 8, !tbaa !32
  %11 = load ptr, ptr %2, align 8, !tbaa !4
  %12 = call i32 @init(ptr noundef %11) #16
  call void @llvm.lifetime.end.p0(i64 8, ptr %3) #15
  ret i32 %12
}